; Function Attrs: inlinehint nounwind uwtable
define internal fastcc range(i64 0, 2) i64 @rioRead(ptr noundef %0, ptr noundef %1, i64 noundef range(i64 0, -1) %2) unnamed_addr #6 {
  %4 = getelementptr inbounds nuw i8, ptr %0, i64 48
  %5 = load i64, ptr %4, align 8, !tbaa !53
  %6 = and i64 %5, 5
  %.not = icmp eq i64 %6, 0
  br i1 %.not, label %.preheader, label %.loopexit

.preheader:                                       ; preds = %3
  %.not3137 = icmp eq i64 %2, 0
  br i1 %.not3137, label %.loopexit, label %.lr.ph

.lr.ph:                                           ; preds = %.preheader
  %7 = getelementptr inbounds nuw i8, ptr %0, i64 64
  %8 = getelementptr inbounds nuw i8, ptr %0, i64 32
  %9 = getelementptr inbounds nuw i8, ptr %0, i64 56
  br label %10

10:                                               ; preds = %.lr.ph, %22
  %.02539 = phi i64 [ %2, %.lr.ph ], [ %24, %22 ]
  %.02738 = phi ptr [ %1, %.lr.ph ], [ %23, %22 ]
  %11 = load i64, ptr %7, align 8, !tbaa !55
  %.not32.not = icmp eq i64 %11, 0
  %12 = tail call i64 @llvm.umin.i64(i64 %11, i64 %.02539)
  %13 = select i1 %.not32.not, i64 %.02539, i64 %12
  %14 = load ptr, ptr %0, align 8, !tbaa !60
  %15 = tail call i64 %14(ptr noundef nonnull %0, ptr noundef %.02738, i64 noundef %13) #23
  %16 = icmp eq i64 %15, 0
  br i1 %16, label %.thread, label %19

.thread:                                          ; preds = %10
  %17 = load i64, ptr %4, align 8, !tbaa !53
  %18 = or i64 %17, 1
  store i64 %18, ptr %4, align 8, !tbaa !53
  br label %.loopexit

19:                                               ; preds = %10
  %20 = load ptr, ptr %8, align 8, !tbaa !56
  %.not33 = icmp eq ptr %20, null
  br i1 %.not33, label %22, label %21

21:                                               ; preds = %19
  tail call void %20(ptr noundef nonnull %0, ptr noundef %.02738, i64 noundef %13) #23
  br label %22

22:                                               ; preds = %19, %21
  %23 = getelementptr inbounds nuw i8, ptr %.02738, i64 %13
  %24 = sub i64 %.02539, %13
  %25 = load i64, ptr %9, align 8, !tbaa !58
  %26 = add i64 %25, %13
  store i64 %26, ptr %9, align 8, !tbaa !58
  %.not31 = icmp eq i64 %24, 0
  br i1 %.not31, label %.loopexit, label %10

.loopexit:                                        ; preds = %22, %.preheader, %.thread, %3
  %.024 = phi i64 [ 0, %3 ], [ 0, %.thread ], [ 1, %.preheader ], [ 1, %22 ]
  ret i64 %.024
}